; Function Attrs: mustprogress nofree norecurse nosync nounwind willreturn memory(argmem: write) uwtable
define void @_ZThn8_N3gmx17TrajectoryElement23registerLoggingCallbackEv(ptr dead_on_unwind noalias writable writeonly sret(%"class.std::optional") align 8 captures(none) initializes((0, 33)) %0, ptr noundef %1) unnamed_addr #2 align 2 personality ptr @__gxx_personality_v0 {
  %3 = getelementptr inbounds i8, ptr %1, i64 -8
  %4 = ptrtoint ptr %3 to i64
  %5 = getelementptr inbounds nuw i8, ptr %0, i64 16
  %6 = getelementptr inbounds nuw i8, ptr %0, i64 24
  %7 = getelementptr inbounds nuw i8, ptr %0, i64 8
  store i64 0, ptr %7, align 8, !alias.scope !66
  store i64 %4, ptr %0, align 8, !tbaa !27, !alias.scope !66
  store ptr @"_ZNSt17_Function_handlerIFvldEZN3gmx17TrajectoryElement23registerLoggingCallbackEvE3$_0E9_M_invokeERKSt9_Any_dataOlOd", ptr %6, align 8, !tbaa !62, !alias.scope !66
  store ptr @"_ZNSt17_Function_handlerIFvldEZN3gmx17TrajectoryElement23registerLoggingCallbackEvE3$_0E10_M_managerERSt9_Any_dataRKS5_St18_Manager_operation", ptr %5, align 8, !tbaa !38, !alias.scope !66
  %8 = getelementptr inbounds nuw i8, ptr %0, i64 32
  store i8 1, ptr %8, align 8, !tbaa !64, !alias.scope !66
  ret void
}